target datalayout = "e-m:e-p270:32:32-p271:32:32-p272:64:64-i64:64-i128:128-f80:128-n8:16:32:64-S128"
target triple = "x86_64-pc-linux-gnu"

%class.G1CMIsAliveClosure = type { %class.BoolObjectClosure, ptr }
%class.BoolObjectClosure = type { ptr }
%class.BitMap = type { ptr, i64 }
%class.G1MappingChangedListener = type { ptr }
%class.MemRegion = type { ptr, i64 }
%class.G1CMSubjectToDiscoveryClosure = type { %class.BoolObjectClosure, ptr }
%class.G1STWIsAliveClosure = type { %class.BoolObjectClosure, ptr }
%class.G1HeapVerifier = type { ptr }
%class.G1CollectedHeap = type { %class.CollectedHeap, ptr, ptr, ptr, ptr, ptr, %class.TimeInstant, %class.G1HeapRegionSet, %class.G1HeapRegionSet, %class.G1MonotonicArenaMemoryStats, %class.G1MonotonicArenaMemoryStats, ptr, %class.G1RegionMappingChangedListener, ptr, %class.G1HeapRegionManager, ptr, %class.G1YoungGCAllocationFailureInjector, ptr, i64, i64, %class.G1EvacStats, %class.G1EvacStats, ptr, i32, i32, %class.G1CollectorState, i32, i32, %class.G1EdenRegions, %class.G1SurvivorRegions, ptr, ptr, ptr, ptr, %class.G1CollectionSet, ptr, %class.G1CardSetConfiguration, %class.G1MonotonicArenaFreePool, ptr, ptr, ptr, ptr, ptr, %class.G1STWIsAliveClosure, %class.G1STWSubjectToDiscoveryClosure, ptr, %class.G1CMIsAliveClosure, %class.G1CMSubjectToDiscoveryClosure, %class.G1HeapRegionAttrBiasedMappedArray }
%class.CollectedHeap = type { ptr, ptr, i64, i64, %class.SoftRefPolicy, %class.MemRegion, i8, i64, i32, i32, i32, i32, ptr, ptr }
%class.SoftRefPolicy = type { i8, i8 }
%class.TimeInstant = type { %class.CompositeCounterRepresentation }
%class.CompositeCounterRepresentation = type { %class.Representation }
%class.Representation = type { %class.PairRep }
%class.PairRep = type { i64, i64 }
%class.G1HeapRegionSet = type { %class.G1HeapRegionSetBase.base, [7 x i8] }
%class.G1HeapRegionSetBase.base = type <{ ptr, ptr, i32, [4 x i8], ptr, i8 }>
%class.G1MonotonicArenaMemoryStats = type { [4 x i64], [4 x i64] }
%class.G1RegionMappingChangedListener = type { %class.G1MappingChangedListener }
%class.G1HeapRegionManager = type { ptr, ptr, %class.G1CommittedRegionMap, i32, [4 x i8], %class.G1HeapRegionTable, ptr, ptr, %class.G1FreeRegionList }
%class.G1CommittedRegionMap = type { ptr, %class.CHeapBitMap, %class.CHeapBitMap, i32, i32 }
%class.CHeapBitMap = type <{ %class.GrowableBitMap, i8, [7 x i8] }>
%class.GrowableBitMap = type { %class.BitMap }
%class.G1HeapRegionTable = type { %class.G1BiasedMappedArray.base, [4 x i8] }
%class.G1BiasedMappedArray.base = type { %class.G1BiasedMappedArrayBase.base }
%class.G1BiasedMappedArrayBase.base = type <{ ptr, ptr, ptr, i64, ptr, i64, i32 }>
%class.G1FreeRegionList = type { %class.G1HeapRegionSetBase.base, ptr, ptr, ptr, ptr }
%class.G1YoungGCAllocationFailureInjector = type { i8 }
%class.G1EvacStats = type { %class.PLABStats, i64, i64, %class.AdaptiveWeightedAverage, i64, i32, i64, i64, i64, i64, i64 }
%class.PLABStats = type { ptr, ptr, i64, i64, i64, i64 }
%class.AdaptiveWeightedAverage = type { float, i32, i32, i8, float }
%class.G1CollectorState = type { i8, i8, i8, i8, i8, i8, i8 }
%class.G1EdenRegions = type { i32, i64, %class.G1RegionsOnNodes }
%class.G1RegionsOnNodes = type { ptr, ptr }
%class.G1SurvivorRegions = type { ptr, i64, %class.G1RegionsOnNodes }
%class.G1CollectionSet = type { ptr, ptr, %class.G1CollectionSetCandidates, ptr, i32, i32, i32, i32, i32, %class.G1CollectionCandidateRegionList, i32, i64 }
%class.G1CollectionSetCandidates = type { [8 x i8], %class.G1CollectionCandidateList, %class.G1CollectionCandidateList, ptr, i32, i32 }
%class.G1CollectionCandidateList = type { %class.GrowableArray }
%class.GrowableArray = type { %class.GrowableArrayWithAllocator, %class.GrowableArrayMetadata }
%class.GrowableArrayWithAllocator = type { %class.GrowableArrayView }
%class.GrowableArrayView = type { %class.GrowableArrayBase, ptr }
%class.GrowableArrayBase = type { i32, i32 }
%class.GrowableArrayMetadata = type { i64 }
%class.G1CollectionCandidateRegionList = type { %class.GrowableArray.2 }
%class.GrowableArray.2 = type { %class.GrowableArrayWithAllocator.3, %class.GrowableArrayMetadata }
%class.GrowableArrayWithAllocator.3 = type { %class.GrowableArrayView.4 }
%class.GrowableArrayView.4 = type { %class.GrowableArrayBase, ptr }
%class.G1CardSetConfiguration = type { i32, i32, i32, i32, i32, i32, i32, i32, i32, i32, i32, ptr }
%class.G1MonotonicArenaFreePool = type { i32, ptr }
%class.G1STWSubjectToDiscoveryClosure = type { %class.BoolObjectClosure, ptr }
%class.G1HeapRegionAttrBiasedMappedArray = type { %class.G1BiasedMappedArray.base.6, [4 x i8] }
%class.G1BiasedMappedArray.base.6 = type { %class.G1BiasedMappedArrayBase.base }
%class.VerifyRegionListsClosure = type <{ %class.G1HeapRegionClosure.base, [7 x i8], ptr, ptr, ptr, i32, i32, i32, [4 x i8] }>
%class.G1HeapRegionClosure.base = type <{ ptr, i8 }>
%class.G1HeapRegionClosure = type <{ ptr, i8, [7 x i8] }>
%class.G1HeapRegionSetBase = type <{ ptr, ptr, i32, [4 x i8], ptr, i8, [7 x i8] }>

@g_assert_poison = external global ptr, align 8
@.str.7 = private unnamed_addr constant [43 x i8] c"src/hotspot/share/gc/g1/g1HeapVerifier.cpp\00", align 1
@_ZTV19G1HeapRegionClosure = linkonce_odr hidden unnamed_addr constant { [3 x ptr] } { [3 x ptr] [ptr null, ptr null, ptr @__cxa_pure_virtual] }, comdat, align 8
@_ZTV24VerifyRegionListsClosure = linkonce_odr hidden unnamed_addr constant { [3 x ptr] } { [3 x ptr] [ptr null, ptr null, ptr @_ZN24VerifyRegionListsClosure14do_heap_regionEP12G1HeapRegion] }, comdat, align 8
@.str.38 = private unnamed_addr constant [50 x i8] c"guarantee(old_set->length() == _old_count) failed\00", align 1
@.str.39 = private unnamed_addr constant [48 x i8] c"Old set count mismatch. Expected %u, actual %u.\00", align 1
@.str.40 = private unnamed_addr constant [62 x i8] c"guarantee(humongous_set->length() == _humongous_count) failed\00", align 1
@.str.41 = private unnamed_addr constant [48 x i8] c"Hum set count mismatch. Expected %u, actual %u.\00", align 1
@.str.42 = private unnamed_addr constant [63 x i8] c"guarantee(free_list->num_free_regions() == _free_count) failed\00", align 1
@.str.43 = private unnamed_addr constant [50 x i8] c"Free list count mismatch. Expected %u, actual %u.\00", align 1

; Function Attrs: mustprogress nounwind uwtable
define linkonce_odr hidden noundef i32 @_ZNK19G1HeapRegionManager16num_free_regionsEv(ptr noundef nonnull align 8 dereferenceable(232) %0) #1 comdat align 2 {
  %2 = alloca ptr, align 8
  store ptr %0, ptr %2, align 8
  %3 = load ptr, ptr %2, align 8
  %4 = getelementptr inbounds %class.G1HeapRegionManager, ptr %3, i32 0, i32 8
  %5 = call noundef i32 @_ZNK19G1HeapRegionSetBase6lengthEv(ptr noundef nonnull align 8 dereferenceable(33) %4)
  ret i32 %5
}

; Function Attrs: mustprogress nounwind uwtable
define linkonce_odr hidden noundef i32 @_ZNK19G1HeapRegionSetBase6lengthEv(ptr noundef nonnull align 8 dereferenceable(33) %0) #1 comdat align 2 {
  %2 = alloca ptr, align 8
  store ptr %0, ptr %2, align 8
  %3 = load ptr, ptr %2, align 8
  %4 = getelementptr inbounds %class.G1HeapRegionSetBase, ptr %3, i32 0, i32 2
  %5 = load i32, ptr %4, align 8
  ret i32 %5
}

; Function Attrs: mustprogress nounwind uwtable
define linkonce_odr hidden void @_ZN19G1HeapRegionClosureC2Ev(ptr noundef nonnull align 8 dereferenceable(9) %0) unnamed_addr #1 comdat align 2 {
  %2 = alloca ptr, align 8
  store ptr %0, ptr %2, align 8
  %3 = load ptr, ptr %2, align 8
  store ptr getelementptr inbounds inrange(-16, 8) ({ [3 x ptr] }, ptr @_ZTV19G1HeapRegionClosure, i32 0, i32 0, i32 2), ptr %3, align 8
  %4 = getelementptr inbounds %class.G1HeapRegionClosure, ptr %3, i32 0, i32 1
  store i8 1, ptr %4, align 8
  ret void
}

; Function Attrs: mustprogress nounwind uwtable
define linkonce_odr hidden void @_ZN25G1CollectionSetCandidates6verifyEv(ptr noundef nonnull align 8 dereferenceable(72) %0) #1 comdat align 2 {
  %2 = alloca ptr, align 8
  store ptr %0, ptr %2, align 8
  ret void
}

; Function Attrs: mustprogress nounwind uwtable
define linkonce_odr hidden noundef ptr @_ZN15G1CollectionSet10candidatesEv(ptr noundef nonnull align 8 dereferenceable(160) %0) #1 comdat align 2 {
  %2 = alloca ptr, align 8
  store ptr %0, ptr %2, align 8
  %3 = load ptr, ptr %2, align 8
  %4 = getelementptr inbounds %class.G1CollectionSet, ptr %3, i32 0, i32 2
  ret ptr %4
}

; Function Attrs: mustprogress nounwind uwtable
define linkonce_odr hidden noundef ptr @_ZN15G1CollectedHeap14collection_setEv(ptr noundef nonnull align 8 dereferenceable(1488) %0) #1 comdat align 2 {
  %2 = alloca ptr, align 8
  store ptr %0, ptr %2, align 8
  %3 = load ptr, ptr %2, align 8
  %4 = getelementptr inbounds %class.G1CollectedHeap, ptr %3, i32 0, i32 34
  ret ptr %4
}

; Function Attrs: mustprogress nounwind uwtable
define linkonce_odr hidden void @_ZN24VerifyRegionListsClosure13verify_countsEP15G1HeapRegionSetS1_P19G1HeapRegionManager(ptr noundef nonnull align 8 dereferenceable(52) %0, ptr noundef %1, ptr noundef %2, ptr noundef %3) #1 comdat align 2 {
  %5 = alloca ptr, align 8
  %6 = alloca ptr, align 8
  %7 = alloca ptr, align 8
  %8 = alloca ptr, align 8
  store ptr %0, ptr %5, align 8
  store ptr %1, ptr %6, align 8
  store ptr %2, ptr %7, align 8
  store ptr %3, ptr %8, align 8
  %9 = load ptr, ptr %5, align 8
  br label %10

10:                                               ; preds = %4
  %11 = load ptr, ptr %6, align 8
  %12 = call noundef i32 @_ZNK19G1HeapRegionSetBase6lengthEv(ptr noundef nonnull align 8 dereferenceable(33) %11)
  %13 = getelementptr inbounds %class.VerifyRegionListsClosure, ptr %9, i32 0, i32 5
  %14 = load i32, ptr %13, align 8
  %15 = icmp eq i32 %12, %14
  br i1 %15, label %22, label %16

16:                                               ; preds = %10
  %17 = load ptr, ptr @g_assert_poison, align 8
  store i8 88, ptr %17, align 1
  %18 = load ptr, ptr %6, align 8
  %19 = call noundef i32 @_ZNK19G1HeapRegionSetBase6lengthEv(ptr noundef nonnull align 8 dereferenceable(33) %18)
  %20 = getelementptr inbounds %class.VerifyRegionListsClosure, ptr %9, i32 0, i32 5
  %21 = load i32, ptr %20, align 8
  call void (ptr, i32, ptr, ptr, ...) @_Z15report_vm_errorPKciS0_S0_z(ptr noundef @.str.7, i32 noundef 416, ptr noundef @.str.38, ptr noundef @.str.39, i32 noundef %19, i32 noundef %21) #11
  unreachable

22:                                               ; preds = %10
  br label %23

23:                                               ; preds = %22
  br label %24

24:                                               ; preds = %23
  %25 = load ptr, ptr %7, align 8
  %26 = call noundef i32 @_ZNK19G1HeapRegionSetBase6lengthEv(ptr noundef nonnull align 8 dereferenceable(33) %25)
  %27 = getelementptr inbounds %class.VerifyRegionListsClosure, ptr %9, i32 0, i32 6
  %28 = load i32, ptr %27, align 4
  %29 = icmp eq i32 %26, %28
  br i1 %29, label %36, label %30

30:                                               ; preds = %24
  %31 = load ptr, ptr @g_assert_poison, align 8
  store i8 88, ptr %31, align 1
  %32 = load ptr, ptr %7, align 8
  %33 = call noundef i32 @_ZNK19G1HeapRegionSetBase6lengthEv(ptr noundef nonnull align 8 dereferenceable(33) %32)
  %34 = getelementptr inbounds %class.VerifyRegionListsClosure, ptr %9, i32 0, i32 6
  %35 = load i32, ptr %34, align 4
  call void (ptr, i32, ptr, ptr, ...) @_Z15report_vm_errorPKciS0_S0_z(ptr noundef @.str.7, i32 noundef 417, ptr noundef @.str.40, ptr noundef @.str.41, i32 noundef %33, i32 noundef %35) #11
  unreachable

36:                                               ; preds = %24
  br label %37

37:                                               ; preds = %36
  br label %38

38:                                               ; preds = %37
  %39 = load ptr, ptr %8, align 8
  %40 = call noundef i32 @_ZNK19G1HeapRegionManager16num_free_regionsEv(ptr noundef nonnull align 8 dereferenceable(232) %39)
  %41 = getelementptr inbounds %class.VerifyRegionListsClosure, ptr %9, i32 0, i32 7
  %42 = load i32, ptr %41, align 8
  %43 = icmp eq i32 %40, %42
  br i1 %43, label %50, label %44

44:                                               ; preds = %38
  %45 = load ptr, ptr @g_assert_poison, align 8
  store i8 88, ptr %45, align 1
  %46 = load ptr, ptr %8, align 8
  %47 = call noundef i32 @_ZNK19G1HeapRegionManager16num_free_regionsEv(ptr noundef nonnull align 8 dereferenceable(232) %46)
  %48 = getelementptr inbounds %class.VerifyRegionListsClosure, ptr %9, i32 0, i32 7
  %49 = load i32, ptr %48, align 8
  call void (ptr, i32, ptr, ptr, ...) @_Z15report_vm_errorPKciS0_S0_z(ptr noundef @.str.7, i32 noundef 418, ptr noundef @.str.42, ptr noundef @.str.43, i32 noundef %47, i32 noundef %49) #11
  unreachable

50:                                               ; preds = %38
  br label %51

51:                                               ; preds = %50
  ret void
}

; Function Attrs: mustprogress nounwind uwtable
define linkonce_odr hidden void @_ZN24VerifyRegionListsClosureC2EP15G1HeapRegionSetS1_P19G1HeapRegionManager(ptr noundef nonnull align 8 dereferenceable(52) %0, ptr noundef %1, ptr noundef %2, ptr noundef %3) unnamed_addr #1 comdat align 2 {
  %5 = alloca ptr, align 8
  %6 = alloca ptr, align 8
  %7 = alloca ptr, align 8
  %8 = alloca ptr, align 8
  store ptr %0, ptr %5, align 8
  store ptr %1, ptr %6, align 8
  store ptr %2, ptr %7, align 8
  store ptr %3, ptr %8, align 8
  %9 = load ptr, ptr %5, align 8
  call void @_ZN19G1HeapRegionClosureC2Ev(ptr noundef nonnull align 8 dereferenceable(9) %9)
  store ptr getelementptr inbounds inrange(-16, 8) ({ [3 x ptr] }, ptr @_ZTV24VerifyRegionListsClosure, i32 0, i32 0, i32 2), ptr %9, align 8
  %10 = getelementptr inbounds %class.VerifyRegionListsClosure, ptr %9, i32 0, i32 2
  %11 = load ptr, ptr %6, align 8
  store ptr %11, ptr %10, align 8
  %12 = getelementptr inbounds %class.VerifyRegionListsClosure, ptr %9, i32 0, i32 3
  %13 = load ptr, ptr %7, align 8
  store ptr %13, ptr %12, align 8
  %14 = getelementptr inbounds %class.VerifyRegionListsClosure, ptr %9, i32 0, i32 4
  %15 = load ptr, ptr %8, align 8
  store ptr %15, ptr %14, align 8
  %16 = getelementptr inbounds %class.VerifyRegionListsClosure, ptr %9, i32 0, i32 5
  store i32 0, ptr %16, align 8
  %17 = getelementptr inbounds %class.VerifyRegionListsClosure, ptr %9, i32 0, i32 6
  store i32 0, ptr %17, align 4
  %18 = getelementptr inbounds %class.VerifyRegionListsClosure, ptr %9, i32 0, i32 7
  store i32 0, ptr %18, align 8
  ret void
}

; Function Attrs: mustprogress nounwind uwtable
define hidden void @_ZN14G1HeapVerifier18verify_region_setsEv(ptr noundef nonnull align 8 dereferenceable(8) %0) #1 align 2 {
  %2 = alloca ptr, align 8
  %3 = alloca %class.VerifyRegionListsClosure, align 8
  store ptr %0, ptr %2, align 8
  %4 = load ptr, ptr %2, align 8
  br label %5

5:                                                ; preds = %1
  br label %6

6:                                                ; preds = %5
  %7 = getelementptr inbounds %class.G1HeapVerifier, ptr %4, i32 0, i32 0
  %8 = load ptr, ptr %7, align 8
  %9 = getelementptr inbounds %class.G1CollectedHeap, ptr %8, i32 0, i32 14
  call void @_ZN19G1HeapRegionManager6verifyEv(ptr noundef nonnull align 8 dereferenceable(232) %9)
  %10 = getelementptr inbounds %class.G1HeapVerifier, ptr %4, i32 0, i32 0
  %11 = load ptr, ptr %10, align 8
  %12 = getelementptr inbounds %class.G1CollectedHeap, ptr %11, i32 0, i32 7
  %13 = getelementptr inbounds %class.G1HeapVerifier, ptr %4, i32 0, i32 0
  %14 = load ptr, ptr %13, align 8
  %15 = getelementptr inbounds %class.G1CollectedHeap, ptr %14, i32 0, i32 8
  %16 = getelementptr inbounds %class.G1HeapVerifier, ptr %4, i32 0, i32 0
  %17 = load ptr, ptr %16, align 8
  %18 = getelementptr inbounds %class.G1CollectedHeap, ptr %17, i32 0, i32 14
  call void @_ZN24VerifyRegionListsClosureC2EP15G1HeapRegionSetS1_P19G1HeapRegionManager(ptr noundef nonnull align 8 dereferenceable(52) %3, ptr noundef %12, ptr noundef %15, ptr noundef %18)
  %19 = getelementptr inbounds %class.G1HeapVerifier, ptr %4, i32 0, i32 0
  %20 = load ptr, ptr %19, align 8
  call void @_ZNK15G1CollectedHeap19heap_region_iterateEP19G1HeapRegionClosure(ptr noundef nonnull align 8 dereferenceable(1488) %20, ptr noundef %3)
  %21 = getelementptr inbounds %class.G1HeapVerifier, ptr %4, i32 0, i32 0
  %22 = load ptr, ptr %21, align 8
  %23 = getelementptr inbounds %class.G1CollectedHeap, ptr %22, i32 0, i32 7
  %24 = getelementptr inbounds %class.G1HeapVerifier, ptr %4, i32 0, i32 0
  %25 = load ptr, ptr %24, align 8
  %26 = getelementptr inbounds %class.G1CollectedHeap, ptr %25, i32 0, i32 8
  %27 = getelementptr inbounds %class.G1HeapVerifier, ptr %4, i32 0, i32 0
  %28 = load ptr, ptr %27, align 8
  %29 = getelementptr inbounds %class.G1CollectedHeap, ptr %28, i32 0, i32 14
  call void @_ZN24VerifyRegionListsClosure13verify_countsEP15G1HeapRegionSetS1_P19G1HeapRegionManager(ptr noundef nonnull align 8 dereferenceable(52) %3, ptr noundef %23, ptr noundef %26, ptr noundef %29)
  %30 = getelementptr inbounds %class.G1HeapVerifier, ptr %4, i32 0, i32 0
  %31 = load ptr, ptr %30, align 8
  %32 = call noundef ptr @_ZN15G1CollectedHeap14collection_setEv(ptr noundef nonnull align 8 dereferenceable(1488) %31)
  %33 = call noundef ptr @_ZN15G1CollectionSet10candidatesEv(ptr noundef nonnull align 8 dereferenceable(160) %32)
  call void @_ZN25G1CollectionSetCandidates6verifyEv(ptr noundef nonnull align 8 dereferenceable(72) %33)
  ret void
}