; Function Attrs: mustprogress nounwind uwtable
define hidden void @_ZN14G1HeapVerifier18verify_region_setsEv(ptr nocapture noundef nonnull readonly align 8 dereferenceable(8) %0) local_unnamed_addr #2 align 2 {
  %2 = alloca %class.VerifyRegionListsClosure, align 8
  %3 = load ptr, ptr %0, align 8
  %4 = getelementptr inbounds i8, ptr %3, i64 392
  tail call void @_ZN19G1HeapRegionManager6verifyEv(ptr noundef nonnull align 8 dereferenceable(232) %4) #13
  %5 = load ptr, ptr %0, align 8
  %6 = getelementptr inbounds i8, ptr %5, i64 160
  %7 = getelementptr inbounds i8, ptr %5, i64 200
  %8 = getelementptr inbounds i8, ptr %5, i64 392
  %9 = getelementptr inbounds i8, ptr %2, i64 8
  store i8 1, ptr %9, align 8
  store ptr getelementptr inbounds inrange(-16, 8) (i8, ptr @_ZTV24VerifyRegionListsClosure, i64 16), ptr %2, align 8
  %10 = getelementptr inbounds i8, ptr %2, i64 16
  store ptr %6, ptr %10, align 8
  %11 = getelementptr inbounds i8, ptr %2, i64 24
  store ptr %7, ptr %11, align 8
  %12 = getelementptr inbounds i8, ptr %2, i64 32
  store ptr %8, ptr %12, align 8
  %13 = getelementptr inbounds i8, ptr %2, i64 40
  store i32 0, ptr %13, align 8
  %14 = getelementptr inbounds i8, ptr %2, i64 44
  store i32 0, ptr %14, align 4
  %15 = getelementptr inbounds i8, ptr %2, i64 48
  store i32 0, ptr %15, align 8
  call void @_ZNK15G1CollectedHeap19heap_region_iterateEP19G1HeapRegionClosure(ptr noundef nonnull align 8 dereferenceable(1488) %5, ptr noundef nonnull %2) #13
  %16 = load ptr, ptr %0, align 8
  %17 = getelementptr inbounds i8, ptr %16, i64 176
  %18 = load i32, ptr %17, align 8
  %19 = load i32, ptr %13, align 8
  %20 = icmp eq i32 %18, %19
  br i1 %20, label %25, label %21

21:                                               ; preds = %1
  %22 = load ptr, ptr @g_assert_poison, align 8
  store i8 88, ptr %22, align 1
  %23 = load i32, ptr %17, align 8
  %24 = load i32, ptr %13, align 8
  call void (ptr, i32, ptr, ptr, ...) @_Z15report_vm_errorPKciS0_S0_z(ptr noundef nonnull @.str.7, i32 noundef 416, ptr noundef nonnull @.str.38, ptr noundef nonnull @.str.39, i32 noundef %23, i32 noundef %24) #14
  unreachable

25:                                               ; preds = %1
  %26 = getelementptr inbounds i8, ptr %16, i64 216
  %27 = load i32, ptr %26, align 8
  %28 = load i32, ptr %14, align 4
  %29 = icmp eq i32 %27, %28
  br i1 %29, label %34, label %30

30:                                               ; preds = %25
  %31 = load ptr, ptr @g_assert_poison, align 8
  store i8 88, ptr %31, align 1
  %32 = load i32, ptr %26, align 8
  %33 = load i32, ptr %14, align 4
  call void (ptr, i32, ptr, ptr, ...) @_Z15report_vm_errorPKciS0_S0_z(ptr noundef nonnull @.str.7, i32 noundef 417, ptr noundef nonnull @.str.40, ptr noundef nonnull @.str.41, i32 noundef %32, i32 noundef %33) #14
  unreachable

34:                                               ; preds = %25
  %35 = getelementptr inbounds i8, ptr %16, i64 568
  %36 = load i32, ptr %35, align 8
  %37 = load i32, ptr %15, align 8
  %38 = icmp eq i32 %36, %37
  br i1 %38, label %_ZN24VerifyRegionListsClosure13verify_countsEP15G1HeapRegionSetS1_P19G1HeapRegionManager.exit, label %39

39:                                               ; preds = %34
  %40 = load ptr, ptr @g_assert_poison, align 8
  store i8 88, ptr %40, align 1
  %41 = load i32, ptr %35, align 8
  %42 = load i32, ptr %15, align 8
  call void (ptr, i32, ptr, ptr, ...) @_Z15report_vm_errorPKciS0_S0_z(ptr noundef nonnull @.str.7, i32 noundef 418, ptr noundef nonnull @.str.42, ptr noundef nonnull @.str.43, i32 noundef %41, i32 noundef %42) #14
  unreachable

_ZN24VerifyRegionListsClosure13verify_countsEP15G1HeapRegionSetS1_P19G1HeapRegionManager.exit: ; preds = %34
  ret void
}